(dp0
S'impact'
p1
F0.05134859647080852
sS'noiseAmplitude'
p2
cnumpy.core.multiarray
scalar
p3
(cnumpy
dtype
p4
(S'f8'
p5
I0
I1
tp6
Rp7
(I3
S'<'
p8
NNNI-1
I-1
I0
tp9
bS'{\x14\xaeG\xe1z\x84?'
p10
tp11
Rp12
sS'period'
p13
F4.765881156751563
sS'depth'
p14
F1.0087691173832911
sS'T0sInMinutes'
p15
F380.9144655125833
sS'signalToNoise'
p16
g3
(g7
S'9\xca\xf5\n\xfe)-@'
p17
tp18
Rp19
s.