(dp0
S'impact'
p1
F0.3643231735115194
sS'noiseAmplitude'
p2
cnumpy.core.multiarray
scalar
p3
(cnumpy
dtype
p4
(S'f8'
p5
I0
I1
tp6
Rp7
(I3
S'<'
p8
NNNI-1
I-1
I0
tp9
bS'{\x14\xaeG\xe1z\x94?'
p10
tp11
Rp12
sS'period'
p13
F9.692021390529675
sS'depth'
p14
F0.8245720028490118
sS'T0sInMinutes'
p15
F268.805549696087
sS'signalToNoise'
p16
g3
(g7
S'\xf4u\xd2!"s\t@'
p17
tp18
Rp19
s.