(dp0
S'impact'
p1
F0.7914387780006629
sS'depth'
p2
F0.283574809743005
sS'period'
p3
F24.50305959264555
sS'noiseAmplitude'
p4
cnumpy.core.multiarray
scalar
p5
(cnumpy
dtype
p6
(S'f8'
p7
I0
I1
tp8
Rp9
(I3
S'<'
p10
NNNI-1
I-1
I0
tp11
bS'\x9a\x99\x99\x99\x99\x99\xb9?'
p12
tp13
Rp14
s.