(dp0
S'impact'
p1
F0.7846133153880479
sS'noiseAmplitude'
p2
cnumpy.core.multiarray
scalar
p3
(cnumpy
dtype
p4
(S'f8'
p5
I0
I1
tp6
Rp7
(I3
S'<'
p8
NNNI-1
I-1
I0
tp9
bS'{\x14\xaeG\xe1z\x84?'
p10
tp11
Rp12
sS'period'
p13
F12.636417886476288
sS'depth'
p14
F1.360725070778754
sS'T0sInMinutes'
p15
F589.965026249185
sS'signalToNoise'
p16
g3
(g7
S'R\xb2\x81\x11\xa3\xa2,@'
p17
tp18
Rp19
s.