(dp0
S'impact'
p1
F0.6088401893542287
sS'noiseAmplitude'
p2
cnumpy.core.multiarray
scalar
p3
(cnumpy
dtype
p4
(S'f8'
p5
I0
I1
tp6
Rp7
(I3
S'<'
p8
NNNI-1
I-1
I0
tp9
bS'{\x14\xaeG\xe1z\x94?'
p10
tp11
Rp12
sS'period'
p13
F26.48860898741418
sS'depth'
p14
F0.8683766495379954
sS'T0sInMinutes'
p15
F424.3336930337342
sS'signalToNoise'
p16
g3
(g7
S'y\x06\xc0\xfb\xd9~\x1c@'
p17
tp18
Rp19
s.