(dp0
S'impact'
p1
F0.45753072417962076
sS'depth'
p2
F0.1591239495290683
sS'noiseAmplitude'
p3
cnumpy.core.multiarray
scalar
p4
(cnumpy
dtype
p5
(S'f8'
p6
I0
I1
tp7
Rp8
(I3
S'<'
p9
NNNI-1
I-1
I0
tp10
bS'\x9a\x99\x99\x99\x99\x99\xb9?'
p11
tp12
Rp13
sS'period'
p14
F13.887302053414171
sS'T0sInMinutes'
p15
F784.2643103737441
s.