(dp0
S'impact'
p1
F0.0
sS'noiseAmplitude'
p2
cnumpy.core.multiarray
scalar
p3
(cnumpy
dtype
p4
(S'f8'
p5
I0
I1
tp6
Rp7
(I3
S'<'
p8
NNNI-1
I-1
I0
tp9
bS'{\x14\xaeG\xe1z\x94?'
p10
tp11
Rp12
sS'period'
p13
F8.431298191327596
sS'depth'
p14
F0.7003343627598204
sS'T0sInMinutes'
p15
I450
sS'signalToNoise'
p16
g3
(g7
S'e\xff=w_\x1d\x1a@'
p17
tp18
Rp19
s.