(dp0
S'impact'
p1
F0.3245833235401467
sS'noiseAmplitude'
p2
cnumpy.core.multiarray
scalar
p3
(cnumpy
dtype
p4
(S'f8'
p5
I0
I1
tp6
Rp7
(I3
S'<'
p8
NNNI-1
I-1
I0
tp9
bS'\x9a\x99\x99\x99\x99\x99\xb9?'
p10
tp11
Rp12
sS'period'
p13
F28.10142537764259
sS'depth'
p14
F0.19872969876063928
sS'T0sInMinutes'
p15
F643.3276731321846
sS'signalToNoise'
p16
g3
(g7
S'\x82\x84@\xae#[\xed?'
p17
tp18
Rp19
s.