(dp0
S'impact'
p1
F0.2667836301546266
sS'depth'
p2
F1.400887714097106
sS'noiseAmplitude'
p3
cnumpy.core.multiarray
scalar
p4
(cnumpy
dtype
p5
(S'f8'
p6
I0
I1
tp7
Rp8
(I3
S'<'
p9
NNNI-1
I-1
I0
tp10
bS'{\x14\xaeG\xe1z\x84?'
p11
tp12
Rp13
sS'period'
p14
F9.220233431269337
sS'T0sInMinutes'
p15
F526.7658675490194
s.