(dp0
S'impact'
p1
F0.6005637426263579
sS'noiseAmplitude'
p2
cnumpy.core.multiarray
scalar
p3
(cnumpy
dtype
p4
(S'f8'
p5
I0
I1
tp6
Rp7
(I3
S'<'
p8
NNNI-1
I-1
I0
tp9
bS'\x9a\x99\x99\x99\x99\x99\xb9?'
p10
tp11
Rp12
sS'period'
p13
F19.345818248822432
sS'depth'
p14
F0.28799304122731184
sS'T0sInMinutes'
p15
F636.3067241465762
sS'signalToNoise'
p16
g3
(g7
S'\xba\xe9rv\x0c4\xc7?'
p17
tp18
Rp19
s.