(dp0
S'impact'
p1
F0.11057969886722133
sS'depth'
p2
F1.1534975518221384
sS'noiseAmplitude'
p3
cnumpy.core.multiarray
scalar
p4
(cnumpy
dtype
p5
(S'f8'
p6
I0
I1
tp7
Rp8
(I3
S'<'
p9
NNNI-1
I-1
I0
tp10
bS'{\x14\xaeG\xe1z\x84?'
p11
tp12
Rp13
sS'period'
p14
F12.203783453171924
sS'T0sInMinutes'
p15
F663.5172311233096
s.