(dp0
S'impact'
p1
F0.277221315866543
sS'noiseAmplitude'
p2
cnumpy.core.multiarray
scalar
p3
(cnumpy
dtype
p4
(S'f8'
p5
I0
I1
tp6
Rp7
(I3
S'<'
p8
NNNI-1
I-1
I0
tp9
bS'{\x14\xaeG\xe1z\x84?'
p10
tp11
Rp12
sS'period'
p13
F26.685558109276744
sS'depth'
p14
F1.021246638427758
sS'T0sInMinutes'
p15
F499.26040060119584
sS'signalToNoise'
p16
g3
(g7
S'\x13\x89\xc5\xeb\xb1\x1e3@'
p17
tp18
Rp19
s.