(dp0
S'impact'
p1
F0.1647498233516692
sS'noiseAmplitude'
p2
cnumpy.core.multiarray
scalar
p3
(cnumpy
dtype
p4
(S'f8'
p5
I0
I1
tp6
Rp7
(I3
S'<'
p8
NNNI-1
I-1
I0
tp9
bS'{\x14\xaeG\xe1z\x84?'
p10
tp11
Rp12
sS'period'
p13
F10.264102152144478
sS'depth'
p14
F1.0272513355305053
sS'T0sInMinutes'
p15
F441.299968409518
sS'signalToNoise'
p16
g3
(g7
S'\xd2\xf7\xb1\x83\x98\x802@'
p17
tp18
Rp19
s.