(dp0
S'impact'
p1
F0.0
sS'noiseAmplitude'
p2
cnumpy.core.multiarray
scalar
p3
(cnumpy
dtype
p4
(S'f8'
p5
I0
I1
tp6
Rp7
(I3
S'<'
p8
NNNI-1
I-1
I0
tp9
bS'{\x14\xaeG\xe1z\x84?'
p10
tp11
Rp12
sS'period'
p13
F29.461466038581673
sS'depth'
p14
F1.2072931330833776
sS'T0sInMinutes'
p15
I450
sS'signalToNoise'
p16
g3
(g7
S'\xc0\x1a\xff%\x0cC8@'
p17
tp18
Rp19
s.