(dp0
S'impact'
p1
F0.3429678891921033
sS'depth'
p2
F0.16566220717623356
sS'noiseAmplitude'
p3
cnumpy.core.multiarray
scalar
p4
(cnumpy
dtype
p5
(S'f8'
p6
I0
I1
tp7
Rp8
(I3
S'<'
p9
NNNI-1
I-1
I0
tp10
bS'\x9a\x99\x99\x99\x99\x99\xb9?'
p11
tp12
Rp13
sS'period'
p14
F13.226424418129712
sS'T0sInMinutes'
p15
F591.9615471403931
s.