(dp0
S'impact'
p1
F0.018173213154969583
sS'depth'
p2
F0.2885406695732807
sS'period'
p3
F19.78632118442861
sS'noiseAmplitude'
p4
cnumpy.core.multiarray
scalar
p5
(cnumpy
dtype
p6
(S'f8'
p7
I0
I1
tp8
Rp9
(I3
S'<'
p10
NNNI-1
I-1
I0
tp11
bS'\x9a\x99\x99\x99\x99\x99\xb9?'
p12
tp13
Rp14
s.