(dp0
S'impact'
p1
F0.4320825678976413
sS'noiseAmplitude'
p2
cnumpy.core.multiarray
scalar
p3
(cnumpy
dtype
p4
(S'f8'
p5
I0
I1
tp6
Rp7
(I3
S'<'
p8
NNNI-1
I-1
I0
tp9
bS'\x9a\x99\x99\x99\x99\x99\xb9?'
p10
tp11
Rp12
sS'period'
p13
F27.88623901283702
sS'depth'
p14
F0.2681758509793579
sS'T0sInMinutes'
p15
F345.8832055554509
sS'signalToNoise'
p16
g3
(g7
S'=\xe5\xe1\x9c\x1c\xde\xbf?'
p17
tp18
Rp19
s.