(dp0
S'impact'
p1
F0.26317938828510573
sS'noiseAmplitude'
p2
cnumpy.core.multiarray
scalar
p3
(cnumpy
dtype
p4
(S'f8'
p5
I0
I1
tp6
Rp7
(I3
S'<'
p8
NNNI-1
I-1
I0
tp9
bS'\x9a\x99\x99\x99\x99\x99\xb9?'
p10
tp11
Rp12
sS'period'
p13
F17.157532938477118
sS'depth'
p14
F0.11305149995677673
sS'T0sInMinutes'
p15
F480.75185208816833
sS'signalToNoise'
p16
g3
(g7
S'\xb0r\xf6\x1b\x0f+\xe4?'
p17
tp18
Rp19
s.