(dp0
S'impact'
p1
F0.6775725101897279
sS'depth'
p2
F0.15707316558070805
sS'period'
p3
F4.019943214059095
sS'noiseAmplitude'
p4
cnumpy.core.multiarray
scalar
p5
(cnumpy
dtype
p6
(S'f8'
p7
I0
I1
tp8
Rp9
(I3
S'<'
p10
NNNI-1
I-1
I0
tp11
bS'\x9a\x99\x99\x99\x99\x99\xb9?'
p12
tp13
Rp14
s.