(dp0
S'impact'
p1
F0.20735217447751256
sS'noiseAmplitude'
p2
cnumpy.core.multiarray
scalar
p3
(cnumpy
dtype
p4
(S'f8'
p5
I0
I1
tp6
Rp7
(I3
S'<'
p8
NNNI-1
I-1
I0
tp9
bS'{\x14\xaeG\xe1z\x94?'
p10
tp11
Rp12
sS'period'
p13
F16.565061033186034
sS'depth'
p14
F0.7662779411882435
sS'T0sInMinutes'
p15
F441.9768964839842
sS'signalToNoise'
p16
g3
(g7
S'#ET\xef\xfd\xed!@'
p17
tp18
Rp19
s.