(dp0
S'impact'
p1
F0.0
sS'noiseAmplitude'
p2
cnumpy.core.multiarray
scalar
p3
(cnumpy
dtype
p4
(S'f8'
p5
I0
I1
tp6
Rp7
(I3
S'<'
p8
NNNI-1
I-1
I0
tp9
bS'\x9a\x99\x99\x99\x99\x99\xb9?'
p10
tp11
Rp12
sS'period'
p13
F29.532937119252917
sS'depth'
p14
F0.18114583088503666
sS'T0sInMinutes'
p15
I450
sS'signalToNoise'
p16
g3
(g7
S'\x88\x96\x90o\x93D\xd6?'
p17
tp18
Rp19
s.