(dp0
S'impact'
p1
F0.5818827994595254
sS'noiseAmplitude'
p2
cnumpy.core.multiarray
scalar
p3
(cnumpy
dtype
p4
(S'f8'
p5
I0
I1
tp6
Rp7
(I3
S'<'
p8
NNNI-1
I-1
I0
tp9
bS'{\x14\xaeG\xe1z\x94?'
p10
tp11
Rp12
sS'period'
p13
F26.88038092846044
sS'depth'
p14
F0.8015316379314072
sS'T0sInMinutes'
p15
F293.28178444135625
sS'signalToNoise'
p16
g3
(g7
S'\x03\xbd(\xccA\xb0\x1a@'
p17
tp18
Rp19
s.