(dp0
S'impact'
p1
F0.17468167014651215
sS'depth'
p2
F1.4414524275022949
sS'period'
p3
F5.955806305488435
sS'noiseAmplitude'
p4
cnumpy.core.multiarray
scalar
p5
(cnumpy
dtype
p6
(S'f8'
p7
I0
I1
tp8
Rp9
(I3
S'<'
p10
NNNI-1
I-1
I0
tp11
bS'{\x14\xaeG\xe1z\x84?'
p12
tp13
Rp14
s.