(dp0
S'impact'
p1
F0.0
sS'noiseAmplitude'
p2
cnumpy.core.multiarray
scalar
p3
(cnumpy
dtype
p4
(S'f8'
p5
I0
I1
tp6
Rp7
(I3
S'<'
p8
NNNI-1
I-1
I0
tp9
bS'{\x14\xaeG\xe1z\x84?'
p10
tp11
Rp12
sS'period'
p13
F26.842335389194382
sS'depth'
p14
F1.0229523305419665
sS'T0sInMinutes'
p15
I450
sS'signalToNoise'
p16
g3
(g7
S'7\xaa*-+o3@'
p17
tp18
Rp19
s.