(dp0
S'impact'
p1
F0.615616105556011
sS'noiseAmplitude'
p2
cnumpy.core.multiarray
scalar
p3
(cnumpy
dtype
p4
(S'f8'
p5
I0
I1
tp6
Rp7
(I3
S'<'
p8
NNNI-1
I-1
I0
tp9
bS'{\x14\xaeG\xe1z\x94?'
p10
tp11
Rp12
sS'period'
p13
F25.45891422596878
sS'depth'
p14
F0.8727069239733385
sS'T0sInMinutes'
p15
F464.71554997466603
sS'signalToNoise'
p16
g3
(g7
S'\x16L\x89\xf2\x05r\x1e@'
p17
tp18
Rp19
s.