(dp0
S'impact'
p1
F0.0291426583369927
sS'noiseAmplitude'
p2
cnumpy.core.multiarray
scalar
p3
(cnumpy
dtype
p4
(S'f8'
p5
I0
I1
tp6
Rp7
(I3
S'<'
p8
NNNI-1
I-1
I0
tp9
bS'\x9a\x99\x99\x99\x99\x99\xb9?'
p10
tp11
Rp12
sS'period'
p13
F20.129627291197664
sS'depth'
p14
F0.28295700064584495
sS'T0sInMinutes'
p15
F475.43595888923346
sS'signalToNoise'
p16
g3
(g7
S'\xd2\x17=\xd43\\\xea?'
p17
tp18
Rp19
s.