(dp0
S'impact'
p1
F0.0
sS'noiseAmplitude'
p2
cnumpy.core.multiarray
scalar
p3
(cnumpy
dtype
p4
(S'f8'
p5
I0
I1
tp6
Rp7
(I3
S'<'
p8
NNNI-1
I-1
I0
tp9
bS'\x9a\x99\x99\x99\x99\x99\xb9?'
p10
tp11
Rp12
sS'period'
p13
F21.54727328713715
sS'depth'
p14
F0.28810678420632596
sS'T0sInMinutes'
p15
I450
sS'signalToNoise'
p16
g3
(g7
S'\xe6\xa3~\x81&\xb0\xe6?'
p17
tp18
Rp19
s.